; Function Attrs: nounwind sspstrong uwtable
define internal fastcc noundef ptr @str2dstr(ptr %.288.val, ptr noundef captures(none) %0) unnamed_addr #0 {
  %2 = tail call ptr @rb_ast_newnode(ptr noundef %.288.val, i32 noundef 64, i64 noundef 56, i64 noundef 8) #35
  tail call void @rb_node_init(ptr noundef %2, i32 noundef 64) #35
  %3 = load i64, ptr %0, align 8, !tbaa !72
  %4 = and i64 %3, 128
  %.not.i = icmp eq i64 %4, 0
  %.pre8.i = load i64, ptr %2, align 8, !tbaa !72
  br i1 %.not.i, label %nd_copy_flag.exit, label %5

5:                                                ; preds = %1
  %6 = or i64 %.pre8.i, 128
  store i64 %6, ptr %2, align 8, !tbaa !72
  %.pre.i = load i64, ptr %0, align 8, !tbaa !72
  br label %nd_copy_flag.exit

nd_copy_flag.exit:                                ; preds = %1, %5
  %7 = phi i64 [ %6, %5 ], [ %.pre8.i, %1 ]
  %8 = phi i64 [ %.pre.i, %5 ], [ %3, %1 ]
  %9 = shl i64 %8, 17
  %10 = and i64 %7, 32767
  %11 = ashr exact i64 %9, 17
  %12 = and i64 %11, -32768
  %13 = or disjoint i64 %12, %10
  store i64 %13, ptr %2, align 8, !tbaa !72
  %14 = getelementptr inbounds nuw i8, ptr %2, i64 8
  %15 = getelementptr inbounds nuw i8, ptr %0, i64 8
  tail call void @llvm.memcpy.p0.p0.i64(ptr noundef nonnull align 8 dereferenceable(16) %14, ptr noundef nonnull readonly align 8 dereferenceable(16) %15, i64 16, i1 false), !tbaa.struct !59
  %16 = getelementptr inbounds nuw i8, ptr %0, i64 24
  %17 = load i32, ptr %16, align 8, !tbaa !208
  %18 = getelementptr inbounds nuw i8, ptr %2, i64 24
  store i32 %17, ptr %18, align 8, !tbaa !208
  %19 = getelementptr inbounds nuw i8, ptr %0, i64 32
  %20 = load ptr, ptr %19, align 8, !tbaa !442
  %21 = getelementptr inbounds nuw i8, ptr %2, i64 32
  store ptr %20, ptr %21, align 8, !tbaa !444
  %22 = getelementptr inbounds nuw i8, ptr %2, i64 40
  tail call void @llvm.memset.p0.i64(ptr noundef nonnull align 8 dereferenceable(16) %22, i8 0, i64 16, i1 false)
  store ptr null, ptr %19, align 8, !tbaa !442
  ret ptr %2
}